	.arch armv7-a
	.eabi_attribute 28, 1
	.eabi_attribute 23, 1
	.eabi_attribute 24, 1
	.eabi_attribute 25, 1
	.eabi_attribute 26, 2
	.eabi_attribute 30, 2
	.eabi_attribute 34, 1
	.eabi_attribute 18, 4
	.file	"MonoFilePlayer.cpp"
	.text
.Ltext0:
	.cfi_sections	.debug_frame
	.align	1
	.p2align 2,,3
	.global	_ZN14MonoFilePlayerC2ERKNSt7__cxx1112basic_stringIcSt11char_traitsIcESaIcEEEbb
	.syntax unified
	.thumb
	.thumb_func
	.fpu neon
	.type	_ZN14MonoFilePlayerC2ERKNSt7__cxx1112basic_stringIcSt11char_traitsIcESaIcEEEbb, %function
_ZN14MonoFilePlayerC2ERKNSt7__cxx1112basic_stringIcSt11char_traitsIcESaIcEEEbb:
	.fnstart
.LFB1308:
	.file 1 "/root/Bela/projects/CochlearSimulation_PSHC/MonoFilePlayer.cpp"
	.loc 1 17 0
	.cfi_startproc
	.cfi_personality 0,__gxx_personality_v0
	.cfi_lsda 0,.LLSDA1308
	@ args = 0, pretend = 0, frame = 16
	@ frame_needed = 0, uses_anonymous_args = 0
.LVL0:
	push	{r4, r5, lr}
	.save {r4, r5, lr}
	.cfi_def_cfa_offset 12
	.cfi_offset 4, -12
	.cfi_offset 5, -8
	.cfi_offset 14, -4
	mov	r4, r0
.LVL1:
	.pad #20
	sub	sp, sp, #20
	.cfi_def_cfa_offset 32
.LBB378:
.LBB379:
.LBB380:
	.loc 1 26 0
	strb	r3, [r0, #17]
.LBE380:
.LBE379:
.LBB426:
.LBB427:
.LBB428:
.LBB429:
	.file 2 "/usr/include/c++/6/bits/stl_vector.h"
	.loc 2 87 0
	movs	r5, #0
.LBE429:
.LBE428:
.LBE427:
.LBE426:
.LBB433:
.LBB423:
	.loc 1 30 0
	add	r0, sp, #4
.LVL2:
	.loc 1 27 0
	strb	r2, [r4, #16]
.LBE423:
.LBE433:
.LBB434:
.LBB432:
.LBB431:
.LBB430:
	.loc 2 87 0
	str	r5, [r4]
	str	r5, [r4, #4]
	str	r5, [r4, #8]
.LVL3:
.LBE430:
.LBE431:
.LBE432:
.LBE434:
	.loc 1 17 0
	str	r5, [r4, #12]
.LVL4:
.LEHB0:
.LBB435:
.LBB424:
	.loc 1 30 0
	bl	_ZN18AudioFileUtilities8loadMonoERKNSt7__cxx1112basic_stringIcSt11char_traitsIcESaIcEEE(PLT)
.LVL5:
.LEHE0:
.LBB381:
.LBB382:
.LBB383:
.LBB384:
.LBB385:
.LBB386:
.LBB387:
	.file 3 "/usr/include/c++/6/bits/move.h"
	.loc 3 192 0
	mov	r3, r5
	.loc 3 191 0
	ldr	r2, [sp, #4]
.LBE387:
.LBE386:
.LBB390:
.LBB391:
	ldr	r1, [sp, #8]
.LBE391:
.LBE390:
.LBB394:
.LBB395:
	ldr	r5, [sp, #12]
.LBE395:
.LBE394:
.LBE385:
.LBB404:
.LBB405:
.LBB406:
	.loc 3 190 0
	ldr	r0, [r4]
.LVL6:
.LBE406:
.LBE405:
.LBE404:
.LBB407:
.LBB398:
.LBB392:
	.loc 3 191 0
	str	r1, [r4, #4]
.LVL7:
.LBE392:
.LBE398:
.LBB399:
.LBB388:
	str	r2, [r4]
.LBE388:
.LBE399:
.LBB400:
.LBB396:
	str	r5, [r4, #8]
.LBE396:
.LBE400:
.LBB401:
.LBB389:
	.loc 3 192 0
	str	r3, [sp, #4]
.LVL8:
.LBE389:
.LBE401:
.LBB402:
.LBB393:
	str	r3, [sp, #8]
.LVL9:
.LBE393:
.LBE402:
.LBB403:
.LBB397:
	str	r3, [sp, #12]
.LVL10:
.LBE397:
.LBE403:
.LBE407:
.LBB408:
.LBB409:
.LBB410:
.LBB411:
	.loc 2 177 0
	cbz	r0, .L2
.LVL11:
.LBB412:
.LBB413:
.LBB414:
	.file 4 "/usr/include/c++/6/ext/new_allocator.h"
	.loc 4 110 0
	bl	_ZdlPv(PLT)
.LVL12:
.LBE414:
.LBE413:
.LBE412:
.LBE411:
.LBE410:
.LBE409:
.LBE408:
.LBE384:
.LBE383:
.LBE382:
.LBE381:
.LBB415:
.LBB416:
	.loc 2 426 0
	ldr	r0, [sp, #4]
.LVL13:
.LBB417:
.LBB418:
.LBB419:
	.loc 2 177 0
	cbz	r0, .L16
.LVL14:
.LBB420:
.LBB421:
.LBB422:
	.loc 4 110 0
	bl	_ZdlPv(PLT)
.LVL15:
.L16:
	ldr	r2, [r4]
	ldr	r1, [r4, #4]
.LVL16:
.L2:
.LBE422:
.LBE421:
.LBE420:
.LBE419:
.LBE418:
.LBE417:
.LBE416:
.LBE415:
	.loc 1 33 0
	cmp	r1, r2
.LBE424:
.LBE435:
.LBE378:
	.loc 1 20 0
	mov	r0, r4
.LBB445:
.LBB436:
.LBB425:
	.loc 1 34 0
	itt	eq
	moveq	r3, #0
	strbeq	r3, [r4, #17]
.LBE425:
.LBE436:
.LBE445:
	.loc 1 20 0
	add	sp, sp, #20
	.cfi_remember_state
	.cfi_def_cfa_offset 12
	@ sp needed
	pop	{r4, r5, pc}
.LVL17:
.L7:
	.cfi_restore_state
.LBB446:
.LBB437:
.LBB438:
	.loc 2 426 0
	ldr	r0, [r4]
.LVL18:
.LBB439:
.LBB440:
.LBB441:
	.loc 2 177 0
	cbz	r0, .L6
.LVL19:
.LBB442:
.LBB443:
.LBB444:
	.loc 4 110 0
	bl	_ZdlPv(PLT)
.LVL20:
.L6:
.LEHB1:
	bl	__cxa_end_cleanup(PLT)
.LVL21:
.LEHE1:
.LBE444:
.LBE443:
.LBE442:
.LBE441:
.LBE440:
.LBE439:
.LBE438:
.LBE437:
.LBE446:
	.cfi_endproc
.LFE1308:
	.global	__gxx_personality_v0
	.personality	__gxx_personality_v0
	.handlerdata
.LLSDA1308:
	.byte	0xff
	.byte	0xff
	.byte	0x1
	.uleb128 .LLSDACSE1308-.LLSDACSB1308
.LLSDACSB1308:
	.uleb128 .LEHB0-.LFB1308
	.uleb128 .LEHE0-.LEHB0
	.uleb128 .L7-.LFB1308
	.uleb128 0
	.uleb128 .LEHB1-.LFB1308
	.uleb128 .LEHE1-.LEHB1
	.uleb128 0
	.uleb128 0
.LLSDACSE1308:
	.text
	.fnend
	.size	_ZN14MonoFilePlayerC2ERKNSt7__cxx1112basic_stringIcSt11char_traitsIcESaIcEEEbb, .-_ZN14MonoFilePlayerC2ERKNSt7__cxx1112basic_stringIcSt11char_traitsIcESaIcEEEbb
	.global	_ZN14MonoFilePlayerC1ERKNSt7__cxx1112basic_stringIcSt11char_traitsIcESaIcEEEbb
	.thumb_set _ZN14MonoFilePlayerC1ERKNSt7__cxx1112basic_stringIcSt11char_traitsIcESaIcEEEbb,_ZN14MonoFilePlayerC2ERKNSt7__cxx1112basic_stringIcSt11char_traitsIcESaIcEEEbb
	.align	1
	.p2align 2,,3
	.global	_ZN14MonoFilePlayer5setupERKNSt7__cxx1112basic_stringIcSt11char_traitsIcESaIcEEEbb
	.syntax unified
	.thumb
	.thumb_func
	.fpu neon
	.type	_ZN14MonoFilePlayer5setupERKNSt7__cxx1112basic_stringIcSt11char_traitsIcESaIcEEEbb, %function
_ZN14MonoFilePlayer5setupERKNSt7__cxx1112basic_stringIcSt11char_traitsIcESaIcEEEbb:
	.fnstart
.LFB1310:
	.loc 1 24 0
	.cfi_startproc
	@ args = 0, pretend = 0, frame = 16
	@ frame_needed = 0, uses_anonymous_args = 0
.LVL22:
	push	{r4, r5, lr}
	.save {r4, r5, lr}
	.cfi_def_cfa_offset 12
	.cfi_offset 4, -12
	.cfi_offset 5, -8
	.cfi_offset 14, -4
	mov	r4, r0
	.pad #20
	sub	sp, sp, #20
	.cfi_def_cfa_offset 32
	.loc 1 26 0
	strb	r3, [r0, #17]
	.loc 1 25 0
	movs	r5, #0
	.loc 1 30 0
	add	r0, sp, #4
.LVL23:
	.loc 1 27 0
	strb	r2, [r4, #16]
	.loc 1 25 0
	str	r5, [r4, #12]
	.loc 1 30 0
	bl	_ZN18AudioFileUtilities8loadMonoERKNSt7__cxx1112basic_stringIcSt11char_traitsIcESaIcEEE(PLT)
.LVL24:
.LBB505:
.LBB506:
.LBB507:
.LBB508:
.LBB509:
.LBB510:
.LBB511:
	.loc 3 191 0
	ldr	r1, [sp, #12]
.LBE511:
.LBE510:
.LBB513:
.LBB514:
	ldr	r3, [sp, #4]
.LBE514:
.LBE513:
.LBB516:
.LBB517:
	ldr	r2, [sp, #8]
.LBE517:
.LBE516:
.LBE509:
.LBB522:
.LBB523:
.LBB524:
	.loc 3 190 0
	ldr	r0, [r4]
.LVL25:
.LBE524:
.LBE523:
.LBE522:
.LBB525:
.LBB519:
.LBB512:
	.loc 3 191 0
	str	r1, [r4, #8]
.LVL26:
	.loc 3 192 0
	str	r5, [sp, #12]
.LBE512:
.LBE519:
.LBB520:
.LBB515:
	.loc 3 191 0
	str	r3, [r4]
	.loc 3 192 0
	str	r5, [sp, #4]
.LVL27:
.LBE515:
.LBE520:
.LBB521:
.LBB518:
	str	r5, [sp, #8]
	.loc 3 191 0
	str	r2, [r4, #4]
.LVL28:
.LBE518:
.LBE521:
.LBE525:
.LBB526:
.LBB527:
.LBB528:
.LBB529:
	.loc 2 177 0
	cbz	r0, .L19
.LVL29:
.LBB530:
.LBB531:
.LBB532:
	.loc 4 110 0
	bl	_ZdlPv(PLT)
.LVL30:
.LBE532:
.LBE531:
.LBE530:
.LBE529:
.LBE528:
.LBE527:
.LBE526:
.LBE508:
.LBE507:
.LBE506:
.LBE505:
.LBB533:
.LBB534:
	.loc 2 426 0
	ldr	r0, [sp, #4]
.LVL31:
.LBB535:
.LBB536:
.LBB537:
	.loc 2 177 0
	cbz	r0, .L27
.LVL32:
.LBB538:
.LBB539:
.LBB540:
	.loc 4 110 0
	bl	_ZdlPv(PLT)
.LVL33:
.L27:
	ldr	r3, [r4]
	ldr	r2, [r4, #4]
.LVL34:
.L19:
.LBE540:
.LBE539:
.LBE538:
.LBE537:
.LBE536:
.LBE535:
.LBE534:
.LBE533:
	.loc 1 33 0
	cmp	r2, r3
	.loc 1 34 0
	itet	eq
	moveq	r0, #0
	.loc 1 38 0
	movne	r0, #1
	.loc 1 34 0
	strbeq	r0, [r4, #17]
	.loc 1 39 0
	add	sp, sp, #20
	.cfi_def_cfa_offset 12
	@ sp needed
	pop	{r4, r5, pc}
	.cfi_endproc
.LFE1310:
	.fnend
	.size	_ZN14MonoFilePlayer5setupERKNSt7__cxx1112basic_stringIcSt11char_traitsIcESaIcEEEbb, .-_ZN14MonoFilePlayer5setupERKNSt7__cxx1112basic_stringIcSt11char_traitsIcESaIcEEEbb
	.align	1
	.p2align 2,,3
	.global	_ZN14MonoFilePlayer7triggerEv
	.syntax unified
	.thumb
	.thumb_func
	.fpu neon
	.type	_ZN14MonoFilePlayer7triggerEv, %function
_ZN14MonoFilePlayer7triggerEv:
	.fnstart
.LFB1314:
	.loc 1 43 0
	.cfi_startproc
	@ args = 0, pretend = 0, frame = 0
	@ frame_needed = 0, uses_anonymous_args = 0
	@ link register save eliminated.
.LVL35:
	.loc 1 44 0
	ldm	r0, {r2, r3}
	cmp	r2, r3
	.loc 1 46 0
	itttt	ne
	movne	r2, #0
	.loc 1 47 0
	movne	r3, #1
	.loc 1 46 0
	strne	r2, [r0, #12]
	.loc 1 47 0
	strbne	r3, [r0, #17]
	bx	lr
	.cfi_endproc
.LFE1314:
	.fnend
	.size	_ZN14MonoFilePlayer7triggerEv, .-_ZN14MonoFilePlayer7triggerEv
	.align	1
	.p2align 2,,3
	.global	_ZN14MonoFilePlayer7processEv
	.syntax unified
	.thumb
	.thumb_func
	.fpu neon
	.type	_ZN14MonoFilePlayer7processEv, %function
_ZN14MonoFilePlayer7processEv:
	.fnstart
.LFB1315:
	.loc 1 52 0
	.cfi_startproc
	@ args = 0, pretend = 0, frame = 0
	@ frame_needed = 0, uses_anonymous_args = 0
	@ link register save eliminated.
.LVL36:
	.loc 1 53 0
	ldrb	r3, [r0, #17]	@ zero_extendqisi2
	cbz	r3, .L32
	.loc 1 52 0
	push	{r4}
	.save {r4}
	.cfi_def_cfa_offset 4
	.cfi_offset 4, -4
.LBB541:
.LBB542:
	.loc 2 656 0
	ldr	r2, [r0, #4]
	ldr	r4, [r0]
.LVL37:
.LBE542:
.LBE541:
	.loc 1 57 0
	ldr	r3, [r0, #12]
.LBB544:
.LBB543:
	.loc 2 656 0
	subs	r2, r2, r4
.LBE543:
.LBE544:
	.loc 1 60 0
	adds	r1, r3, #1
	.loc 1 63 0
	cmp	r1, r2, asr #2
	.loc 1 57 0
	add	r3, r4, r3, lsl #2
	vldr.32	s0, [r3]
.LVL38:
	.loc 1 60 0
	str	r1, [r0, #12]
.LVL39:
	.loc 1 63 0
	bcc	.L30
	.loc 1 65 0
	ldrb	r3, [r0, #16]	@ zero_extendqisi2
	.loc 1 64 0
	movs	r2, #0
	str	r2, [r0, #12]
	.loc 1 65 0
	cbnz	r3, .L30
	.loc 1 66 0
	strb	r3, [r0, #17]
.L30:
	.loc 1 70 0
	ldr	r4, [sp], #4
	.cfi_restore 4
	.cfi_def_cfa_offset 0
	bx	lr
.LVL40:
.L32:
	.loc 1 54 0
	vldr.32	s0, .L37
	bx	lr
.L38:
	.align	2
.L37:
	.word	0
	.cfi_endproc
.LFE1315:
	.fnend
	.size	_ZN14MonoFilePlayer7processEv, .-_ZN14MonoFilePlayer7processEv
.Letext0:
	.file 5 "/usr/include/c++/6/bits/basic_string.h"
	.file 6 "/usr/include/c++/6/bits/stringfwd.h"
	.file 7 "/usr/include/c++/6/type_traits"
	.file 8 "/usr/include/c++/6/bits/stl_pair.h"
	.file 9 "/usr/include/c++/6/debug/debug.h"
	.file 10 "/usr/include/c++/6/cwchar"
	.file 11 "/usr/include/c++/6/bits/char_traits.h"
	.file 12 "/usr/include/arm-linux-gnueabihf/c++/6/bits/c++config.h"
	.file 13 "/usr/include/c++/6/cstdint"
	.file 14 "/usr/include/c++/6/bits/exception_ptr.h"
	.file 15 "/usr/include/c++/6/new"
	.file 16 "/usr/include/c++/6/bits/allocator.h"
	.file 17 "/usr/include/c++/6/clocale"
	.file 18 "/usr/include/c++/6/cstdlib"
	.file 19 "/usr/include/c++/6/cstdio"
	.file 20 "/usr/include/c++/6/bits/alloc_traits.h"
	.file 21 "/usr/include/c++/6/initializer_list"
	.file 22 "/usr/include/c++/6/bits/stl_construct.h"
	.file 23 "/usr/include/c++/6/bits/vector.tcc"
	.file 24 "/usr/include/c++/6/bits/stl_iterator_base_types.h"
	.file 25 "/usr/include/c++/6/bits/predefined_ops.h"
	.file 26 "/usr/include/c++/6/ext/numeric_traits.h"
	.file 27 "/usr/include/c++/6/ext/alloc_traits.h"
	.file 28 "/usr/include/c++/6/bits/stl_iterator.h"
	.file 29 "/usr/include/stdio.h"
	.file 30 "/usr/include/libio.h"
	.file 31 "/usr/lib/gcc/arm-linux-gnueabihf/6/include/stddef.h"
	.file 32 "/usr/lib/gcc/arm-linux-gnueabihf/6/include/stdarg.h"
	.file 33 "<built-in>"
	.file 34 "/usr/include/wchar.h"
	.file 35 "/usr/include/time.h"
	.file 36 "/usr/include/stdint.h"
	.file 37 "/usr/include/locale.h"
	.file 38 "/usr/include/arm-linux-gnueabihf/bits/types.h"
	.file 39 "/usr/include/stdlib.h"
	.file 40 "/usr/include/arm-linux-gnueabihf/bits/stdlib-float.h"
	.file 41 "/usr/include/arm-linux-gnueabihf/bits/stdlib-bsearch.h"
	.file 42 "/usr/include/_G_config.h"
	.file 43 "/usr/include/arm-linux-gnueabihf/bits/sys_errlist.h"
	.file 44 "/usr/include/arm-linux-gnueabihf/bits/stdio.h"
	.file 45 "/usr/include/errno.h"
	.file 46 "/root/Bela/projects/CochlearSimulation_PSHC/MonoFilePlayer.h"
	.section	.note.GNU-stack,"",%progbits
